target datalayout = "e-m:e-p270:32:32-p271:32:32-p272:64:64-i64:64-i128:128-f80:128-n8:16:32:64-S128"
target triple = "x86_64-pc-linux-gnu"

%struct.job_array_resp_msg_t = type { i32, ptr, ptr, ptr }

@exit_code = external global i32, align 4
@quiet_flag = external global i32, align 4
@stderr = external global ptr, align 8
@.str.5 = private unnamed_addr constant [15 x i8] c"%s for job %s\0A\00", align 1
@.str.6 = private unnamed_addr constant [8 x i8] c"%s: %s\0A\00", align 1
@.str.13 = private unnamed_addr constant [7 x i8] c"jobid=\00", align 1
@.str.14 = private unnamed_addr constant [5 x i8] c"job=\00", align 1

; Function Attrs: nounwind uwtable
define dso_local void @scontrol_requeue(i32 noundef %0, ptr noundef %1) #0 {
  %3 = alloca i32, align 4
  %4 = alloca ptr, align 8
  %5 = alloca ptr, align 8
  %6 = alloca i32, align 4
  %7 = alloca i32, align 4
  %8 = alloca ptr, align 8
  %9 = alloca i32, align 4
  store i32 %0, ptr %3, align 4
  store ptr %1, ptr %4, align 8
  call void @llvm.lifetime.start.p0(i64 8, ptr %5) #8
  call void @llvm.lifetime.start.p0(i64 4, ptr %6) #8
  call void @llvm.lifetime.start.p0(i64 4, ptr %7) #8
  call void @llvm.lifetime.start.p0(i64 8, ptr %8) #8
  store ptr null, ptr %8, align 8
  %10 = load ptr, ptr %4, align 8
  %11 = getelementptr inbounds i8, ptr %10, i64 0
  %12 = load i8, ptr %11, align 1
  %13 = icmp ne i8 %12, 0
  br i1 %13, label %15, label %14

14:                                               ; preds = %2
  store i32 1, ptr @exit_code, align 4
  store i32 1, ptr %9, align 4
  br label %123

15:                                               ; preds = %2
  %16 = load ptr, ptr %4, align 8
  %17 = call i32 @xstrncasecmp(ptr noundef %16, ptr noundef @.str.13, i64 noundef 6)
  %18 = icmp ne i32 %17, 0
  br i1 %18, label %22, label %19

19:                                               ; preds = %15
  %20 = load ptr, ptr %4, align 8
  %21 = getelementptr inbounds i8, ptr %20, i64 6
  store ptr %21, ptr %4, align 8
  br label %22

22:                                               ; preds = %19, %15
  %23 = load ptr, ptr %4, align 8
  %24 = call i32 @xstrncasecmp(ptr noundef %23, ptr noundef @.str.14, i64 noundef 4)
  %25 = icmp ne i32 %24, 0
  br i1 %25, label %29, label %26

26:                                               ; preds = %22
  %27 = load ptr, ptr %4, align 8
  %28 = getelementptr inbounds i8, ptr %27, i64 4
  store ptr %28, ptr %4, align 8
  br label %29

29:                                               ; preds = %26, %22
  %30 = load ptr, ptr %4, align 8
  %31 = call zeroext i1 @_is_job_id(ptr noundef %30)
  br i1 %31, label %32, label %110

32:                                               ; preds = %29
  %33 = call ptr @_next_job_id()
  store ptr %33, ptr %5, align 8
  br label %34

34:                                               ; preds = %107, %32
  %35 = load ptr, ptr %5, align 8
  %36 = icmp ne ptr %35, null
  br i1 %36, label %37, label %109

37:                                               ; preds = %34
  %38 = load ptr, ptr %5, align 8
  %39 = load i32, ptr %3, align 4
  %40 = call i32 @slurm_requeue2(ptr noundef %38, i32 noundef %39, ptr noundef %8)
  store i32 %40, ptr %6, align 4
  %41 = load i32, ptr %6, align 4
  %42 = icmp ne i32 %41, 0
  br i1 %42, label %43, label %54

43:                                               ; preds = %37
  store i32 1, ptr @exit_code, align 4
  %44 = load i32, ptr @quiet_flag, align 4
  %45 = icmp ne i32 %44, 1
  br i1 %45, label %46, label %53

46:                                               ; preds = %43
  %47 = load ptr, ptr @stderr, align 8
  %48 = call ptr @__errno_location() #9
  %49 = load i32, ptr %48, align 4
  %50 = call ptr @slurm_strerror(i32 noundef %49)
  %51 = load ptr, ptr %5, align 8
  %52 = call i32 (ptr, ptr, ...) @fprintf(ptr noundef %47, ptr noundef @.str.5, ptr noundef %50, ptr noundef %51) #8
  br label %53

53:                                               ; preds = %46, %43
  br label %107

54:                                               ; preds = %37
  %55 = load ptr, ptr %8, align 8
  %56 = icmp ne ptr %55, null
  br i1 %56, label %57, label %106

57:                                               ; preds = %54
  store i32 0, ptr %7, align 4
  br label %58

58:                                               ; preds = %101, %57
  %59 = load i32, ptr %7, align 4
  %60 = load ptr, ptr %8, align 8
  %61 = getelementptr inbounds nuw %struct.job_array_resp_msg_t, ptr %60, i32 0, i32 0
  %62 = load i32, ptr %61, align 8
  %63 = icmp ult i32 %59, %62
  br i1 %63, label %64, label %104

64:                                               ; preds = %58
  %65 = load ptr, ptr %8, align 8
  %66 = getelementptr inbounds nuw %struct.job_array_resp_msg_t, ptr %65, i32 0, i32 2
  %67 = load ptr, ptr %66, align 8
  %68 = load i32, ptr %7, align 4
  %69 = sext i32 %68 to i64
  %70 = getelementptr inbounds i32, ptr %67, i64 %69
  %71 = load i32, ptr %70, align 4
  %72 = icmp eq i32 %71, 0
  br i1 %72, label %73, label %79

73:                                               ; preds = %64
  %74 = load ptr, ptr %8, align 8
  %75 = getelementptr inbounds nuw %struct.job_array_resp_msg_t, ptr %74, i32 0, i32 0
  %76 = load i32, ptr %75, align 8
  %77 = icmp eq i32 %76, 1
  br i1 %77, label %78, label %79

78:                                               ; preds = %73
  br label %101

79:                                               ; preds = %73, %64
  store i32 1, ptr @exit_code, align 4
  %80 = load i32, ptr @quiet_flag, align 4
  %81 = icmp eq i32 %80, 1
  br i1 %81, label %82, label %83

82:                                               ; preds = %79
  br label %101

83:                                               ; preds = %79
  %84 = load ptr, ptr @stderr, align 8
  %85 = load ptr, ptr %8, align 8
  %86 = getelementptr inbounds nuw %struct.job_array_resp_msg_t, ptr %85, i32 0, i32 1
  %87 = load ptr, ptr %86, align 8
  %88 = load i32, ptr %7, align 4
  %89 = sext i32 %88 to i64
  %90 = getelementptr inbounds ptr, ptr %87, i64 %89
  %91 = load ptr, ptr %90, align 8
  %92 = load ptr, ptr %8, align 8
  %93 = getelementptr inbounds nuw %struct.job_array_resp_msg_t, ptr %92, i32 0, i32 2
  %94 = load ptr, ptr %93, align 8
  %95 = load i32, ptr %7, align 4
  %96 = sext i32 %95 to i64
  %97 = getelementptr inbounds i32, ptr %94, i64 %96
  %98 = load i32, ptr %97, align 4
  %99 = call ptr @slurm_strerror(i32 noundef %98)
  %100 = call i32 (ptr, ptr, ...) @fprintf(ptr noundef %84, ptr noundef @.str.6, ptr noundef %91, ptr noundef %99) #8
  br label %101

101:                                              ; preds = %83, %82, %78
  %102 = load i32, ptr %7, align 4
  %103 = add nsw i32 %102, 1
  store i32 %103, ptr %7, align 4
  br label %58, !llvm.loop !20

104:                                              ; preds = %58
  %105 = load ptr, ptr %8, align 8
  call void @slurm_free_job_array_resp(ptr noundef %105)
  store ptr null, ptr %8, align 8
  br label %106

106:                                              ; preds = %104, %54
  br label %107

107:                                              ; preds = %106, %53
  %108 = call ptr @_next_job_id()
  store ptr %108, ptr %5, align 8
  br label %34, !llvm.loop !21

109:                                              ; preds = %34
  br label %122

110:                                              ; preds = %29
  store i32 1, ptr @exit_code, align 4
  store i32 2017, ptr %6, align 4
  %111 = load i32, ptr %6, align 4
  %112 = call ptr @__errno_location() #9
  store i32 %111, ptr %112, align 4
  %113 = load i32, ptr @quiet_flag, align 4
  %114 = icmp ne i32 %113, 1
  br i1 %114, label %115, label %121

115:                                              ; preds = %110
  %116 = load ptr, ptr @stderr, align 8
  %117 = load i32, ptr %6, align 4
  %118 = call ptr @slurm_strerror(i32 noundef %117)
  %119 = load ptr, ptr %4, align 8
  %120 = call i32 (ptr, ptr, ...) @fprintf(ptr noundef %116, ptr noundef @.str.5, ptr noundef %118, ptr noundef %119) #8
  br label %121

121:                                              ; preds = %115, %110
  br label %122

122:                                              ; preds = %121, %109
  store i32 0, ptr %9, align 4
  br label %123

123:                                              ; preds = %122, %14
  call void @llvm.lifetime.end.p0(i64 8, ptr %8) #8
  call void @llvm.lifetime.end.p0(i64 4, ptr %7) #8
  call void @llvm.lifetime.end.p0(i64 4, ptr %6) #8
  call void @llvm.lifetime.end.p0(i64 8, ptr %5) #8
  %124 = load i32, ptr %9, align 4
  switch i32 %124, label %126 [
    i32 0, label %125
    i32 1, label %125
  ]

125:                                              ; preds = %123, %123
  ret void

126:                                              ; preds = %123
  unreachable
}