; Function Attrs: nounwind uwtable
define dso_local void @scontrol_requeue(i32 noundef %0, ptr noundef %1) local_unnamed_addr #0 {
  %3 = alloca ptr, align 8
  call void @llvm.lifetime.start.p0(i64 8, ptr nonnull %3) #13
  store ptr null, ptr %3, align 8
  %4 = load i8, ptr %1, align 1
  %.not = icmp eq i8 %4, 0
  br i1 %.not, label %5, label %6

5:                                                ; preds = %2
  store i32 1, ptr @exit_code, align 4
  br label %.loopexit

6:                                                ; preds = %2
  %7 = tail call i32 @xstrncasecmp(ptr noundef nonnull %1, ptr noundef nonnull @.str.13, i64 noundef 6) #13
  %.not21 = icmp eq i32 %7, 0
  %spec.select.idx = select i1 %.not21, i64 6, i64 0
  %spec.select = getelementptr inbounds nuw i8, ptr %1, i64 %spec.select.idx
  %8 = tail call i32 @xstrncasecmp(ptr noundef nonnull %spec.select, ptr noundef nonnull @.str.14, i64 noundef 4) #13
  %.not22 = icmp eq i32 %8, 0
  %.1.idx = select i1 %.not22, i64 4, i64 0
  %.1 = getelementptr inbounds nuw i8, ptr %spec.select, i64 %.1.idx
  %9 = tail call fastcc zeroext i1 @_is_job_id(ptr noundef nonnull %.1)
  br i1 %9, label %10, label %51

10:                                               ; preds = %6
  %11 = tail call fastcc ptr @_next_job_id()
  %.not2429 = icmp eq ptr %11, null
  br i1 %.not2429, label %.loopexit, label %.lr.ph32

.lr.ph32:                                         ; preds = %10, %49
  %.01830 = phi ptr [ %50, %49 ], [ %11, %10 ]
  %12 = call i32 @slurm_requeue2(ptr noundef nonnull %.01830, i32 noundef %0, ptr noundef nonnull %3) #13
  %.not25 = icmp eq i32 %12, 0
  br i1 %.not25, label %21, label %13

13:                                               ; preds = %.lr.ph32
  store i32 1, ptr @exit_code, align 4
  %14 = load i32, ptr @quiet_flag, align 4
  %.not27 = icmp eq i32 %14, 1
  br i1 %.not27, label %49, label %15

15:                                               ; preds = %13
  %16 = load ptr, ptr @stderr, align 8
  %17 = tail call ptr @__errno_location() #14
  %18 = load i32, ptr %17, align 4
  %19 = call ptr @slurm_strerror(i32 noundef %18) #13
  %20 = call i32 (ptr, ptr, ...) @fprintf(ptr noundef %16, ptr noundef nonnull @.str.5, ptr noundef %19, ptr noundef nonnull %.01830) #15
  br label %49

21:                                               ; preds = %.lr.ph32
  %22 = load ptr, ptr %3, align 8
  %.not26 = icmp eq ptr %22, null
  br i1 %.not26, label %49, label %.preheader

.preheader:                                       ; preds = %21
  %23 = load i32, ptr %22, align 8
  %.not33 = icmp eq i32 %23, 0
  br i1 %.not33, label %._crit_edge, label %.lr.ph

.lr.ph:                                           ; preds = %.preheader, %44
  %24 = phi ptr [ %45, %44 ], [ %22, %.preheader ]
  %indvars.iv = phi i64 [ %indvars.iv.next, %44 ], [ 0, %.preheader ]
  %25 = phi i32 [ %46, %44 ], [ %23, %.preheader ]
  %26 = getelementptr inbounds nuw i8, ptr %24, i64 16
  %27 = load ptr, ptr %26, align 8
  %28 = getelementptr inbounds nuw i32, ptr %27, i64 %indvars.iv
  %29 = load i32, ptr %28, align 4
  %30 = icmp eq i32 %29, 0
  %31 = icmp eq i32 %25, 1
  %or.cond = and i1 %31, %30
  br i1 %or.cond, label %44, label %32

32:                                               ; preds = %.lr.ph
  store i32 1, ptr @exit_code, align 4
  %33 = load i32, ptr @quiet_flag, align 4
  %34 = icmp eq i32 %33, 1
  br i1 %34, label %44, label %35

35:                                               ; preds = %32
  %36 = load ptr, ptr @stderr, align 8
  %37 = getelementptr inbounds nuw i8, ptr %24, i64 8
  %38 = load ptr, ptr %37, align 8
  %39 = getelementptr inbounds nuw ptr, ptr %38, i64 %indvars.iv
  %40 = load ptr, ptr %39, align 8
  %41 = load i32, ptr %28, align 4
  %42 = call ptr @slurm_strerror(i32 noundef %41) #13
  %43 = call i32 (ptr, ptr, ...) @fprintf(ptr noundef %36, ptr noundef nonnull @.str.6, ptr noundef %40, ptr noundef %42) #15
  %.pre = load ptr, ptr %3, align 8
  br label %44

44:                                               ; preds = %.lr.ph, %32, %35
  %45 = phi ptr [ %24, %.lr.ph ], [ %24, %32 ], [ %.pre, %35 ]
  %indvars.iv.next = add nuw nsw i64 %indvars.iv, 1
  %46 = load i32, ptr %45, align 8
  %47 = zext i32 %46 to i64
  %48 = icmp samesign ult i64 %indvars.iv.next, %47
  br i1 %48, label %.lr.ph, label %._crit_edge, !llvm.loop !18

._crit_edge:                                      ; preds = %44, %.preheader
  %.lcssa = phi ptr [ %22, %.preheader ], [ %45, %44 ]
  call void @slurm_free_job_array_resp(ptr noundef nonnull %.lcssa) #13
  store ptr null, ptr %3, align 8
  br label %49

49:                                               ; preds = %21, %._crit_edge, %13, %15
  %50 = call fastcc ptr @_next_job_id()
  %.not24 = icmp eq ptr %50, null
  br i1 %.not24, label %.loopexit, label %.lr.ph32, !llvm.loop !19

51:                                               ; preds = %6
  store i32 1, ptr @exit_code, align 4
  %52 = tail call ptr @__errno_location() #14
  store i32 2017, ptr %52, align 4
  %53 = load i32, ptr @quiet_flag, align 4
  %.not23 = icmp eq i32 %53, 1
  br i1 %.not23, label %.loopexit, label %54

54:                                               ; preds = %51
  %55 = load ptr, ptr @stderr, align 8
  %56 = tail call ptr @slurm_strerror(i32 noundef 2017) #13
  %57 = tail call i32 (ptr, ptr, ...) @fprintf(ptr noundef %55, ptr noundef nonnull @.str.5, ptr noundef %56, ptr noundef nonnull %.1) #15
  br label %.loopexit

.loopexit:                                        ; preds = %49, %10, %54, %51, %5
  call void @llvm.lifetime.end.p0(i64 8, ptr nonnull %3) #13
  ret void
}